target datalayout = "e-m:e-p270:32:32-p271:32:32-p272:64:64-i64:64-i128:128-f80:128-n8:16:32:64-S128"
target triple = "x86_64-pc-linux-gnu"

; Function Attrs: nounwind uwtable
define void @Bbl_ManVerify(ptr noundef %0, ptr noundef %1) #0 {
  %3 = alloca ptr, align 8
  %4 = alloca ptr, align 8
  %5 = alloca ptr, align 8
  %6 = alloca ptr, align 8
  store ptr %0, ptr %3, align 8, !tbaa !10
  store ptr %1, ptr %4, align 8, !tbaa !10
  call void @llvm.lifetime.start.p0(i64 8, ptr %5) #11
  call void @llvm.lifetime.start.p0(i64 8, ptr %6) #11
  %7 = load ptr, ptr %3, align 8, !tbaa !10
  %8 = call ptr @Abc_NtkStrash(ptr noundef %7, i32 noundef 0, i32 noundef 1, i32 noundef 0)
  store ptr %8, ptr %5, align 8, !tbaa !10
  %9 = load ptr, ptr %4, align 8, !tbaa !10
  %10 = call ptr @Abc_NtkStrash(ptr noundef %9, i32 noundef 0, i32 noundef 1, i32 noundef 0)
  store ptr %10, ptr %6, align 8, !tbaa !10
  %11 = load ptr, ptr %5, align 8, !tbaa !10
  call void @Abc_NtkShortNames(ptr noundef %11)
  %12 = load ptr, ptr %6, align 8, !tbaa !10
  call void @Abc_NtkShortNames(ptr noundef %12)
  %13 = load ptr, ptr %5, align 8, !tbaa !10
  %14 = load ptr, ptr %6, align 8, !tbaa !10
  call void @Abc_NtkCecFraig(ptr noundef %13, ptr noundef %14, i32 noundef 0, i32 noundef 0)
  %15 = load ptr, ptr %5, align 8, !tbaa !10
  call void @Abc_NtkDelete(ptr noundef %15)
  %16 = load ptr, ptr %6, align 8, !tbaa !10
  call void @Abc_NtkDelete(ptr noundef %16)
  call void @llvm.lifetime.end.p0(i64 8, ptr %6) #11
  call void @llvm.lifetime.end.p0(i64 8, ptr %5) #11
  ret void
}