; Function Attrs: nounwind uwtable
define void @Bbl_ManVerify(ptr noundef %0, ptr noundef %1) local_unnamed_addr #0 {
  %3 = tail call ptr @Abc_NtkStrash(ptr noundef %0, i32 noundef 0, i32 noundef 1, i32 noundef 0) #14
  %4 = tail call ptr @Abc_NtkStrash(ptr noundef %1, i32 noundef 0, i32 noundef 1, i32 noundef 0) #14
  tail call void @Abc_NtkShortNames(ptr noundef %3) #14
  tail call void @Abc_NtkShortNames(ptr noundef %4) #14
  tail call void @Abc_NtkCecFraig(ptr noundef %3, ptr noundef %4, i32 noundef 0, i32 noundef 0) #14
  tail call void @Abc_NtkDelete(ptr noundef %3) #14
  tail call void @Abc_NtkDelete(ptr noundef %4) #14
  ret void
}